; Function Attrs: nounwind uwtable
define void @Cmd_HistoryWrite(ptr noundef readonly captures(none) %0, i32 noundef %1) local_unnamed_addr #0 {
  %3 = tail call noalias ptr @fopen(ptr noundef nonnull @.str.10, ptr noundef nonnull @.str.12)
  %4 = icmp eq ptr %3, null
  br i1 %4, label %5, label %6

5:                                                ; preds = %2
  tail call void (i32, ptr, ...) @Abc_Print(i32 poison, ptr nonnull poison)
  br label %24

6:                                                ; preds = %2
  %7 = getelementptr inbounds nuw i8, ptr %0, i64 40
  %8 = load ptr, ptr %7, align 8, !tbaa !24
  %9 = getelementptr i8, ptr %8, i64 4
  %.val12 = load i32, ptr %9, align 4, !tbaa !25
  %10 = sub nsw i32 %.val12, %1
  %11 = tail call noundef range(i32 0, -2147483648) i32 @llvm.smax.i32(i32 %10, i32 0)
  %12 = icmp slt i32 %11, %.val12
  br i1 %12, label %.lr.ph.preheader, label %.critedge

.lr.ph.preheader:                                 ; preds = %6
  %13 = zext nneg i32 %11 to i64
  br label %.lr.ph

.lr.ph:                                           ; preds = %.lr.ph.preheader, %.lr.ph
  %indvars.iv = phi i64 [ %13, %.lr.ph.preheader ], [ %indvars.iv.next, %.lr.ph ]
  %14 = phi ptr [ %8, %.lr.ph.preheader ], [ %19, %.lr.ph ]
  %15 = getelementptr i8, ptr %14, i64 8
  %.val13 = load ptr, ptr %15, align 8, !tbaa !27
  %16 = getelementptr inbounds nuw ptr, ptr %.val13, i64 %indvars.iv
  %17 = load ptr, ptr %16, align 8, !tbaa !28
  %18 = tail call i32 (ptr, ptr, ...) @fprintf(ptr noundef nonnull %3, ptr noundef nonnull @.str.14, ptr noundef %17) #17
  %indvars.iv.next = add nuw nsw i64 %indvars.iv, 1
  %19 = load ptr, ptr %7, align 8, !tbaa !24
  %20 = getelementptr i8, ptr %19, i64 4
  %.val = load i32, ptr %20, align 4, !tbaa !25
  %21 = trunc nuw i64 %indvars.iv.next to i32
  %22 = icmp sgt i32 %.val, %21
  br i1 %22, label %.lr.ph, label %.critedge, !llvm.loop !32

.critedge:                                        ; preds = %.lr.ph, %6
  %23 = tail call i32 @fclose(ptr noundef nonnull %3)
  br label %24

24:                                               ; preds = %.critedge, %5
  ret void
}